; Function Attrs: mustprogress uwtable
define noundef nonnull ptr @_ZN7Imf_3_49loadImageERKNSt7__cxx1112basic_stringIcSt11char_traitsIcESaIcEEE(ptr noundef nonnull align 8 dereferenceable(32) %0) local_unnamed_addr #5 personality ptr @__gxx_personality_v0 {
  %2 = alloca %"class.Imf_3_4::Header", align 8
  %3 = alloca %"class.Imath_3_2::Vec2.9", align 4
  call void @llvm.lifetime.start.p0(i64 56, ptr nonnull %2) #16
  call void @llvm.lifetime.start.p0(i64 8, ptr nonnull %3) #16
  store float 0.000000e+00, ptr %3, align 4, !tbaa !3
  %4 = getelementptr inbounds nuw i8, ptr %3, i64 4
  store float 0.000000e+00, ptr %4, align 4, !tbaa !8
  call void @_ZN7Imf_3_46HeaderC1EiifRKN9Imath_3_24Vec2IfEEfNS_9LineOrderENS_11CompressionE(ptr noundef nonnull align 8 dereferenceable(49) %2, i32 noundef 64, i32 noundef 64, float noundef 1.000000e+00, ptr noundef nonnull align 4 dereferenceable(8) %3, float noundef 1.000000e+00, i32 noundef 0, i32 noundef 3)
  call void @llvm.lifetime.end.p0(i64 8, ptr nonnull %3) #16
  %5 = invoke noundef ptr @_ZN7Imf_3_49loadImageERKNSt7__cxx1112basic_stringIcSt11char_traitsIcESaIcEEERNS_6HeaderE(ptr noundef nonnull align 8 dereferenceable(32) %0, ptr noundef nonnull align 8 dereferenceable(49) %2)
          to label %6 unwind label %7

6:                                                ; preds = %1
  call void @_ZN7Imf_3_46HeaderD1Ev(ptr noundef nonnull align 8 dereferenceable(49) %2) #16
  call void @llvm.lifetime.end.p0(i64 56, ptr nonnull %2) #16
  ret ptr %5

7:                                                ; preds = %1
  %8 = landingpad { ptr, i32 }
          cleanup
  call void @_ZN7Imf_3_46HeaderD1Ev(ptr noundef nonnull align 8 dereferenceable(49) %2) #16
  call void @llvm.lifetime.end.p0(i64 56, ptr nonnull %2) #16
  resume { ptr, i32 } %8
}